; Function Attrs: mustprogress uwtable
define void @_ZNK7openvdb5v11_04math9Transform5writeERSo(ptr nocapture noundef nonnull readonly align 8 dereferenceable(16) %this, ptr noundef nonnull align 8 dereferenceable(8) %os) local_unnamed_addr #3 align 2 personality ptr @__gxx_personality_v0 {
entry:
  %size.i = alloca i32, align 4
  %_openvdb_throw_msg = alloca %"class.std::__cxx11::basic_string", align 8
  %_openvdb_throw_os = alloca %"class.std::__cxx11::basic_ostringstream", align 8
  %ref.tmp = alloca %"class.std::__cxx11::basic_string", align 8
  %ref.tmp9 = alloca %"class.std::__cxx11::basic_string", align 8
  %0 = load ptr, ptr %this, align 8
  %cmp.i.not = icmp eq ptr %0, null
  br i1 %cmp.i.not, label %if.then, label %if.end

if.then:                                          ; preds = %entry
  call void @_ZNSt7__cxx1112basic_stringIcSt11char_traitsIcESaIcEEC1Ev(ptr noundef nonnull align 8 dereferenceable(32) %_openvdb_throw_msg) #23
  invoke void @_ZNSt7__cxx1119basic_ostringstreamIcSt11char_traitsIcESaIcEEC1Ev(ptr noundef nonnull align 8 dereferenceable(112) %_openvdb_throw_os)
          to label %invoke.cont unwind label %lpad

invoke.cont:                                      ; preds = %if.then
  %call4 = invoke noundef nonnull align 8 dereferenceable(8) ptr @_ZStlsISt11char_traitsIcEERSt13basic_ostreamIcT_ES5_PKc(ptr noundef nonnull align 8 dereferenceable(8) %_openvdb_throw_os, ptr noundef nonnull @.str.6)
          to label %invoke.cont3 unwind label %lpad2

invoke.cont3:                                     ; preds = %invoke.cont
  invoke void @_ZNKSt7__cxx1119basic_ostringstreamIcSt11char_traitsIcESaIcEE3strEv(ptr nonnull sret(%"class.std::__cxx11::basic_string") align 8 %ref.tmp, ptr noundef nonnull align 8 dereferenceable(112) %_openvdb_throw_os)
          to label %invoke.cont5 unwind label %lpad2

invoke.cont5:                                     ; preds = %invoke.cont3
  %call6 = call noundef nonnull align 8 dereferenceable(32) ptr @_ZNSt7__cxx1112basic_stringIcSt11char_traitsIcESaIcEEaSEOS4_(ptr noundef nonnull align 8 dereferenceable(32) %_openvdb_throw_msg, ptr noundef nonnull align 8 dereferenceable(32) %ref.tmp) #23
  call void @_ZNSt7__cxx1112basic_stringIcSt11char_traitsIcESaIcEED1Ev(ptr noundef nonnull align 8 dereferenceable(32) %ref.tmp) #23
  call void @_ZNSt7__cxx1119basic_ostringstreamIcSt11char_traitsIcESaIcEED1Ev(ptr noundef nonnull align 8 dereferenceable(112) %_openvdb_throw_os) #23
  br label %try.cont

lpad:                                             ; preds = %if.then
  %1 = landingpad { ptr, i32 }
          catch ptr null
  br label %catch

lpad2:                                            ; preds = %invoke.cont3, %invoke.cont
  %2 = landingpad { ptr, i32 }
          catch ptr null
  call void @_ZNSt7__cxx1119basic_ostringstreamIcSt11char_traitsIcESaIcEED1Ev(ptr noundef nonnull align 8 dereferenceable(112) %_openvdb_throw_os) #23
  br label %catch

catch:                                            ; preds = %lpad2, %lpad
  %.pn = phi { ptr, i32 } [ %2, %lpad2 ], [ %1, %lpad ]
  %exn.slot.0 = extractvalue { ptr, i32 } %.pn, 0
  %3 = call ptr @__cxa_begin_catch(ptr %exn.slot.0) #23
  invoke void @__cxa_end_catch()
          to label %try.cont unwind label %lpad7

try.cont:                                         ; preds = %catch, %invoke.cont5
  %exception = call ptr @__cxa_allocate_exception(i64 40) #23
  call void @_ZN7openvdb5v11_09ExceptionC2EPKcPKNSt7__cxx1112basic_stringIcSt11char_traitsIcESaIcEEE(ptr noundef nonnull align 8 dereferenceable(40) %exception, ptr noundef nonnull @.str.45, ptr noundef nonnull %_openvdb_throw_msg) #23
  store ptr getelementptr inbounds ({ [5 x ptr] }, ptr @_ZTVN7openvdb5v11_07IoErrorE, i64 0, i32 0, i64 2), ptr %exception, align 8
  invoke void @__cxa_throw(ptr nonnull %exception, ptr nonnull @_ZTIN7openvdb5v11_07IoErrorE, ptr nonnull @_ZN7openvdb5v11_07IoErrorD2Ev) #24
          to label %unreachable unwind label %lpad7

lpad7:                                            ; preds = %try.cont, %catch
  %4 = landingpad { ptr, i32 }
          cleanup
  br label %eh.resume

if.end:                                           ; preds = %entry
  %vtable = load ptr, ptr %0, align 8
  %vfn = getelementptr inbounds i8, ptr %vtable, i64 24
  %5 = load ptr, ptr %vfn, align 8
  call void %5(ptr nonnull sret(%"class.std::__cxx11::basic_string") align 8 %ref.tmp9, ptr noundef nonnull align 8 dereferenceable(8) %0)
  call void @llvm.lifetime.start.p0(i64 4, ptr nonnull %size.i)
  %call.i = call noundef i64 @_ZNKSt7__cxx1112basic_stringIcSt11char_traitsIcESaIcEE4sizeEv(ptr noundef nonnull align 8 dereferenceable(32) %ref.tmp9) #23
  %conv.i = trunc i64 %call.i to i32
  store i32 %conv.i, ptr %size.i, align 4
  %call1.i4 = invoke noundef nonnull align 8 dereferenceable(8) ptr @_ZNSo5writeEPKcl(ptr noundef nonnull align 8 dereferenceable(8) %os, ptr noundef nonnull %size.i, i64 noundef 4)
          to label %call1.i.noexc unwind label %lpad12

call1.i.noexc:                                    ; preds = %if.end
  %call2.i = call noundef nonnull align 1 dereferenceable(1) ptr @_ZNKSt7__cxx1112basic_stringIcSt11char_traitsIcESaIcEEixEm(ptr noundef nonnull align 8 dereferenceable(32) %ref.tmp9, i64 noundef 0) #23
  %6 = load i32, ptr %size.i, align 4
  %conv3.i = zext i32 %6 to i64
  %call4.i5 = invoke noundef nonnull align 8 dereferenceable(8) ptr @_ZNSo5writeEPKcl(ptr noundef nonnull align 8 dereferenceable(8) %os, ptr noundef nonnull %call2.i, i64 noundef %conv3.i)
          to label %invoke.cont13 unwind label %lpad12

invoke.cont13:                                    ; preds = %call1.i.noexc
  call void @llvm.lifetime.end.p0(i64 4, ptr nonnull %size.i)
  call void @_ZNSt7__cxx1112basic_stringIcSt11char_traitsIcESaIcEED1Ev(ptr noundef nonnull align 8 dereferenceable(32) %ref.tmp9) #23
  %7 = load ptr, ptr %this, align 8
  %vtable16 = load ptr, ptr %7, align 8
  %vfn17 = getelementptr inbounds i8, ptr %vtable16, i64 144
  %8 = load ptr, ptr %vfn17, align 8
  call void %8(ptr noundef nonnull align 8 dereferenceable(8) %7, ptr noundef nonnull align 8 dereferenceable(8) %os)
  ret void

lpad12:                                           ; preds = %call1.i.noexc, %if.end
  %9 = landingpad { ptr, i32 }
          cleanup
  br label %eh.resume

eh.resume:                                        ; preds = %lpad12, %lpad7
  %ref.tmp9.sink = phi ptr [ %ref.tmp9, %lpad12 ], [ %_openvdb_throw_msg, %lpad7 ]
  %.pn2 = phi { ptr, i32 } [ %9, %lpad12 ], [ %4, %lpad7 ]
  call void @_ZNSt7__cxx1112basic_stringIcSt11char_traitsIcESaIcEED1Ev(ptr noundef nonnull align 8 dereferenceable(32) %ref.tmp9.sink) #23
  resume { ptr, i32 } %.pn2

unreachable:                                      ; preds = %try.cont
  unreachable
}